target datalayout = "e-m:e-p270:32:32-p271:32:32-p272:64:64-i64:64-i128:128-f80:128-n8:16:32:64-S128"
target triple = "x86_64-pc-linux-gnu"

%struct.Vec_Int_t_ = type { i32, i32, ptr }
%struct.Vec_Wec_t_ = type { i32, i32, ptr }

@.str.3 = private unnamed_addr constant [2 x i8] c"{\00", align 1
@.str.4 = private unnamed_addr constant [6 x i8] c"n/a%s\00", align 1
@.str.5 = private unnamed_addr constant [2 x i8] c" \00", align 1
@.str.6 = private unnamed_addr constant [1 x i8] zeroinitializer, align 1
@.str.7 = private unnamed_addr constant [7 x i8] c"%s%d%s\00", align 1
@.str.8 = private unnamed_addr constant [2 x i8] c"~\00", align 1
@.str.9 = private unnamed_addr constant [2 x i8] c"}\00", align 1
@.str.10 = private unnamed_addr constant [26 x i8] c"%sooth %ssigned %d x %d: \00", align 1
@.str.11 = private unnamed_addr constant [2 x i8] c"B\00", align 1
@.str.12 = private unnamed_addr constant [6 x i8] c"Non-b\00", align 1
@.str.13 = private unnamed_addr constant [3 x i8] c"un\00", align 1
@.str.14 = private unnamed_addr constant [4 x i8] c" * \00", align 1
@.str.15 = private unnamed_addr constant [4 x i8] c" = \00", align 1
@.str.16 = private unnamed_addr constant [2 x i8] c"\0A\00", align 1

; Function Attrs: inlinehint nounwind uwtable
define internal i32 @Abc_Lit2Var(i32 noundef %0) #1 {
  %2 = alloca i32, align 4
  store i32 %0, ptr %2, align 4, !tbaa !12
  %3 = load i32, ptr %2, align 4, !tbaa !12
  %4 = ashr i32 %3, 1
  ret i32 %4
}

; Function Attrs: inlinehint nounwind uwtable
define internal i32 @Abc_LitIsCompl(i32 noundef %0) #1 {
  %2 = alloca i32, align 4
  store i32 %0, ptr %2, align 4, !tbaa !12
  %3 = load i32, ptr %2, align 4, !tbaa !12
  %4 = and i32 %3, 1
  ret i32 %4
}

; Function Attrs: inlinehint nounwind uwtable
define internal i32 @Vec_IntEntry(ptr noundef %0, i32 noundef %1) #1 {
  %3 = alloca ptr, align 8
  %4 = alloca i32, align 4
  store ptr %0, ptr %3, align 8, !tbaa !10
  store i32 %1, ptr %4, align 4, !tbaa !12
  %5 = load ptr, ptr %3, align 8, !tbaa !10
  %6 = getelementptr inbounds nuw %struct.Vec_Int_t_, ptr %5, i32 0, i32 2
  %7 = load ptr, ptr %6, align 8, !tbaa !44
  %8 = load i32, ptr %4, align 4, !tbaa !12
  %9 = sext i32 %8 to i64
  %10 = getelementptr inbounds i32, ptr %7, i64 %9
  %11 = load i32, ptr %10, align 4, !tbaa !12
  ret i32 %11
}

; Function Attrs: nounwind uwtable
define void @Gia_ManMulFindPrintSet(ptr noundef %0, i32 noundef %1, i32 noundef %2) #0 {
  %4 = alloca ptr, align 8
  %5 = alloca i32, align 4
  %6 = alloca i32, align 4
  %7 = alloca i32, align 4
  %8 = alloca i32, align 4
  %9 = alloca i32, align 4
  store ptr %0, ptr %4, align 8, !tbaa !10
  store i32 %1, ptr %5, align 4, !tbaa !12
  store i32 %2, ptr %6, align 4, !tbaa !12
  call void @llvm.lifetime.start.p0(i64 4, ptr %7) #10
  call void @llvm.lifetime.start.p0(i64 4, ptr %8) #10
  call void @llvm.lifetime.start.p0(i64 4, ptr %9) #10
  %10 = load ptr, ptr %4, align 8, !tbaa !10
  %11 = call i32 @Vec_IntSize(ptr noundef %10)
  %12 = load i32, ptr %6, align 4, !tbaa !12
  %13 = sub nsw i32 %11, %12
  store i32 %13, ptr %9, align 4, !tbaa !12
  %14 = call i32 (ptr, ...) @printf(ptr noundef @.str.3)
  store i32 0, ptr %7, align 4, !tbaa !12
  br label %15

15:                                               ; preds = %58, %3
  %16 = load i32, ptr %7, align 4, !tbaa !12
  %17 = load i32, ptr %9, align 4, !tbaa !12
  %18 = icmp slt i32 %16, %17
  br i1 %18, label %19, label %23

19:                                               ; preds = %15
  %20 = load ptr, ptr %4, align 8, !tbaa !10
  %21 = load i32, ptr %7, align 4, !tbaa !12
  %22 = call i32 @Vec_IntEntry(ptr noundef %20, i32 noundef %21)
  store i32 %22, ptr %8, align 4, !tbaa !12
  br label %23

23:                                               ; preds = %19, %15
  %24 = phi i1 [ false, %15 ], [ true, %19 ]
  br i1 %24, label %25, label %61

25:                                               ; preds = %23
  %26 = load i32, ptr %8, align 4, !tbaa !12
  %27 = icmp eq i32 %26, -1
  br i1 %27, label %28, label %35

28:                                               ; preds = %25
  %29 = load i32, ptr %7, align 4, !tbaa !12
  %30 = load i32, ptr %9, align 4, !tbaa !12
  %31 = sub nsw i32 %30, 1
  %32 = icmp slt i32 %29, %31
  %33 = select i1 %32, ptr @.str.5, ptr @.str.6
  %34 = call i32 (ptr, ...) @printf(ptr noundef @.str.4, ptr noundef %33)
  br label %57

35:                                               ; preds = %25
  %36 = load i32, ptr %5, align 4, !tbaa !12
  %37 = load i32, ptr %8, align 4, !tbaa !12
  %38 = call i32 @Abc_LitIsCompl(i32 noundef %37)
  %39 = and i32 %36, %38
  %40 = icmp ne i32 %39, 0
  %41 = select i1 %40, ptr @.str.8, ptr @.str.6
  %42 = load i32, ptr %5, align 4, !tbaa !12
  %43 = icmp ne i32 %42, 0
  br i1 %43, label %44, label %47

44:                                               ; preds = %35
  %45 = load i32, ptr %8, align 4, !tbaa !12
  %46 = call i32 @Abc_Lit2Var(i32 noundef %45)
  br label %49

47:                                               ; preds = %35
  %48 = load i32, ptr %8, align 4, !tbaa !12
  br label %49

49:                                               ; preds = %47, %44
  %50 = phi i32 [ %46, %44 ], [ %48, %47 ]
  %51 = load i32, ptr %7, align 4, !tbaa !12
  %52 = load i32, ptr %9, align 4, !tbaa !12
  %53 = sub nsw i32 %52, 1
  %54 = icmp slt i32 %51, %53
  %55 = select i1 %54, ptr @.str.5, ptr @.str.6
  %56 = call i32 (ptr, ...) @printf(ptr noundef @.str.7, ptr noundef %41, i32 noundef %50, ptr noundef %55)
  br label %57

57:                                               ; preds = %49, %28
  br label %58

58:                                               ; preds = %57
  %59 = load i32, ptr %7, align 4, !tbaa !12
  %60 = add nsw i32 %59, 1
  store i32 %60, ptr %7, align 4, !tbaa !12
  br label %15, !llvm.loop !174

61:                                               ; preds = %23
  %62 = call i32 (ptr, ...) @printf(ptr noundef @.str.9)
  call void @llvm.lifetime.end.p0(i64 4, ptr %9) #10
  call void @llvm.lifetime.end.p0(i64 4, ptr %8) #10
  call void @llvm.lifetime.end.p0(i64 4, ptr %7) #10
  ret void
}

; Function Attrs: inlinehint nounwind uwtable
define internal i32 @Vec_IntSize(ptr noundef %0) #1 {
  %2 = alloca ptr, align 8
  store ptr %0, ptr %2, align 8, !tbaa !10
  %3 = load ptr, ptr %2, align 8, !tbaa !10
  %4 = getelementptr inbounds nuw %struct.Vec_Int_t_, ptr %3, i32 0, i32 1
  %5 = load i32, ptr %4, align 4, !tbaa !42
  ret i32 %5
}

; Function Attrs: inlinehint nounwind uwtable
define internal i32 @Vec_IntEntryLast(ptr noundef %0) #1 {
  %2 = alloca ptr, align 8
  store ptr %0, ptr %2, align 8, !tbaa !10
  %3 = load ptr, ptr %2, align 8, !tbaa !10
  %4 = getelementptr inbounds nuw %struct.Vec_Int_t_, ptr %3, i32 0, i32 2
  %5 = load ptr, ptr %4, align 8, !tbaa !44
  %6 = load ptr, ptr %2, align 8, !tbaa !10
  %7 = getelementptr inbounds nuw %struct.Vec_Int_t_, ptr %6, i32 0, i32 1
  %8 = load i32, ptr %7, align 4, !tbaa !42
  %9 = sub nsw i32 %8, 1
  %10 = sext i32 %9 to i64
  %11 = getelementptr inbounds i32, ptr %5, i64 %10
  %12 = load i32, ptr %11, align 4, !tbaa !12
  ret i32 %12
}

; Function Attrs: inlinehint nounwind uwtable
define internal ptr @Vec_WecEntry(ptr noundef %0, i32 noundef %1) #1 {
  %3 = alloca ptr, align 8
  %4 = alloca i32, align 4
  store ptr %0, ptr %3, align 8, !tbaa !33
  store i32 %1, ptr %4, align 4, !tbaa !12
  %5 = load ptr, ptr %3, align 8, !tbaa !33
  %6 = getelementptr inbounds nuw %struct.Vec_Wec_t_, ptr %5, i32 0, i32 2
  %7 = load ptr, ptr %6, align 8, !tbaa !41
  %8 = load i32, ptr %4, align 4, !tbaa !12
  %9 = sext i32 %8 to i64
  %10 = getelementptr inbounds %struct.Vec_Int_t_, ptr %7, i64 %9
  ret ptr %10
}

; Function Attrs: nounwind uwtable
define void @Gia_ManMulFindPrintOne(ptr noundef %0, i32 noundef %1, i32 noundef %2) #0 {
  %4 = alloca ptr, align 8
  %5 = alloca i32, align 4
  %6 = alloca i32, align 4
  %7 = alloca ptr, align 8
  %8 = alloca ptr, align 8
  %9 = alloca ptr, align 8
  store ptr %0, ptr %4, align 8, !tbaa !33
  store i32 %1, ptr %5, align 4, !tbaa !12
  store i32 %2, ptr %6, align 4, !tbaa !12
  call void @llvm.lifetime.start.p0(i64 8, ptr %7) #10
  %10 = load ptr, ptr %4, align 8, !tbaa !33
  %11 = load i32, ptr %5, align 4, !tbaa !12
  %12 = mul nsw i32 3, %11
  %13 = add nsw i32 %12, 0
  %14 = call ptr @Vec_WecEntry(ptr noundef %10, i32 noundef %13)
  store ptr %14, ptr %7, align 8, !tbaa !10
  call void @llvm.lifetime.start.p0(i64 8, ptr %8) #10
  %15 = load ptr, ptr %4, align 8, !tbaa !33
  %16 = load i32, ptr %5, align 4, !tbaa !12
  %17 = mul nsw i32 3, %16
  %18 = add nsw i32 %17, 1
  %19 = call ptr @Vec_WecEntry(ptr noundef %15, i32 noundef %18)
  store ptr %19, ptr %8, align 8, !tbaa !10
  call void @llvm.lifetime.start.p0(i64 8, ptr %9) #10
  %20 = load ptr, ptr %4, align 8, !tbaa !33
  %21 = load i32, ptr %5, align 4, !tbaa !12
  %22 = mul nsw i32 3, %21
  %23 = add nsw i32 %22, 2
  %24 = call ptr @Vec_WecEntry(ptr noundef %20, i32 noundef %23)
  store ptr %24, ptr %9, align 8, !tbaa !10
  %25 = load i32, ptr %6, align 4, !tbaa !12
  %26 = icmp ne i32 %25, 0
  %27 = select i1 %26, ptr @.str.11, ptr @.str.12
  %28 = load ptr, ptr %9, align 8, !tbaa !10
  %29 = call i32 @Vec_IntEntryLast(ptr noundef %28)
  %30 = icmp ne i32 %29, 0
  %31 = select i1 %30, ptr @.str.6, ptr @.str.13
  %32 = load ptr, ptr %7, align 8, !tbaa !10
  %33 = call i32 @Vec_IntSize(ptr noundef %32)
  %34 = load ptr, ptr %8, align 8, !tbaa !10
  %35 = call i32 @Vec_IntSize(ptr noundef %34)
  %36 = call i32 (ptr, ...) @printf(ptr noundef @.str.10, ptr noundef %27, ptr noundef %31, i32 noundef %33, i32 noundef %35)
  %37 = load ptr, ptr %7, align 8, !tbaa !10
  call void @Gia_ManMulFindPrintSet(ptr noundef %37, i32 noundef 0, i32 noundef 0)
  %38 = call i32 (ptr, ...) @printf(ptr noundef @.str.14)
  %39 = load ptr, ptr %8, align 8, !tbaa !10
  call void @Gia_ManMulFindPrintSet(ptr noundef %39, i32 noundef 0, i32 noundef 0)
  %40 = call i32 (ptr, ...) @printf(ptr noundef @.str.15)
  %41 = load ptr, ptr %9, align 8, !tbaa !10
  call void @Gia_ManMulFindPrintSet(ptr noundef %41, i32 noundef 1, i32 noundef 1)
  %42 = call i32 (ptr, ...) @printf(ptr noundef @.str.16)
  call void @llvm.lifetime.end.p0(i64 8, ptr %9) #10
  call void @llvm.lifetime.end.p0(i64 8, ptr %8) #10
  call void @llvm.lifetime.end.p0(i64 8, ptr %7) #10
  ret void
}