; Function Attrs: nofree nounwind uwtable
define void @Gia_ManMulFindPrintOne(ptr noundef readonly captures(none) %0, i32 noundef %1, i32 noundef %2) local_unnamed_addr #7 {
  %4 = mul nsw i32 %1, 3
  %5 = getelementptr i8, ptr %0, i64 8
  %.val16 = load ptr, ptr %5, align 8, !tbaa !39
  %6 = sext i32 %4 to i64
  %7 = getelementptr %struct.Vec_Int_t_, ptr %.val16, i64 %6
  %.not = icmp eq i32 %2, 0
  %8 = select i1 %.not, ptr @.str.12, ptr @.str.11
  %9 = getelementptr i8, ptr %7, i64 36
  %.val17 = load i32, ptr %9, align 4, !tbaa !33
  %10 = getelementptr i8, ptr %7, i64 40
  %.val18 = load ptr, ptr %10, align 8, !tbaa !35
  %11 = sext i32 %.val17 to i64
  %12 = getelementptr i32, ptr %.val18, i64 %11
  %13 = getelementptr i8, ptr %12, i64 -4
  %14 = load i32, ptr %13, align 4, !tbaa !29
  %.not12 = icmp eq i32 %14, 0
  %15 = select i1 %.not12, ptr @.str.13, ptr @.str.6
  %16 = getelementptr i8, ptr %7, i64 4
  %.val13 = load i32, ptr %16, align 4, !tbaa !33
  %17 = getelementptr i8, ptr %7, i64 20
  %.val = load i32, ptr %17, align 4, !tbaa !33
  %18 = tail call i32 (ptr, ...) @printf(ptr noundef nonnull dereferenceable(1) @.str.10, ptr noundef nonnull %8, ptr noundef nonnull %15, i32 noundef %.val13, i32 noundef %.val)
  %.val.i = load i32, ptr %16, align 4, !tbaa !33
  %putchar.i = tail call i32 @putchar(i32 123)
  %19 = icmp sgt i32 %.val.i, 0
  br i1 %19, label %.lr.ph.i, label %Gia_ManMulFindPrintSet.exit

.lr.ph.i:                                         ; preds = %3
  %20 = getelementptr i8, ptr %7, i64 8
  %21 = add nsw i32 %.val.i, -1
  %22 = zext nneg i32 %21 to i64
  %wide.trip.count.i = zext nneg i32 %.val.i to i64
  br label %23

23:                                               ; preds = %33, %.lr.ph.i
  %indvars.iv.i = phi i64 [ 0, %.lr.ph.i ], [ %indvars.iv.next.i, %33 ]
  %.val20.i = load ptr, ptr %20, align 8, !tbaa !35
  %24 = getelementptr inbounds nuw i32, ptr %.val20.i, i64 %indvars.iv.i
  %25 = load i32, ptr %24, align 4, !tbaa !29
  %26 = icmp eq i32 %25, -1
  %27 = icmp samesign ult i64 %indvars.iv.i, %22
  %28 = select i1 %27, ptr @.str.5, ptr @.str.6
  br i1 %26, label %29, label %31

29:                                               ; preds = %23
  %30 = tail call i32 (ptr, ...) @printf(ptr noundef nonnull dereferenceable(1) @.str.4, ptr noundef nonnull %28)
  br label %33

31:                                               ; preds = %23
  %32 = tail call i32 (ptr, ...) @printf(ptr noundef nonnull dereferenceable(1) @.str.7, ptr noundef nonnull @.str.6, i32 noundef %25, ptr noundef nonnull %28)
  br label %33

33:                                               ; preds = %31, %29
  %indvars.iv.next.i = add nuw nsw i64 %indvars.iv.i, 1
  %exitcond.not.i = icmp eq i64 %indvars.iv.next.i, %wide.trip.count.i
  br i1 %exitcond.not.i, label %Gia_ManMulFindPrintSet.exit, label %23, !llvm.loop !169

Gia_ManMulFindPrintSet.exit:                      ; preds = %33, %3
  %putchar18.i = tail call i32 @putchar(i32 125)
  %34 = tail call i32 (ptr, ...) @printf(ptr noundef nonnull dereferenceable(1) @.str.14)
  %.val.i19 = load i32, ptr %17, align 4, !tbaa !33
  %putchar.i20 = tail call i32 @putchar(i32 123)
  %35 = icmp sgt i32 %.val.i19, 0
  br i1 %35, label %.lr.ph.i22, label %Gia_ManMulFindPrintSet.exit28

.lr.ph.i22:                                       ; preds = %Gia_ManMulFindPrintSet.exit
  %36 = getelementptr i8, ptr %7, i64 24
  %37 = add nsw i32 %.val.i19, -1
  %38 = zext nneg i32 %37 to i64
  %wide.trip.count.i23 = zext nneg i32 %.val.i19 to i64
  br label %39

39:                                               ; preds = %49, %.lr.ph.i22
  %indvars.iv.i24 = phi i64 [ 0, %.lr.ph.i22 ], [ %indvars.iv.next.i26, %49 ]
  %.val20.i25 = load ptr, ptr %36, align 8, !tbaa !35
  %40 = getelementptr inbounds nuw i32, ptr %.val20.i25, i64 %indvars.iv.i24
  %41 = load i32, ptr %40, align 4, !tbaa !29
  %42 = icmp eq i32 %41, -1
  %43 = icmp samesign ult i64 %indvars.iv.i24, %38
  %44 = select i1 %43, ptr @.str.5, ptr @.str.6
  br i1 %42, label %45, label %47

45:                                               ; preds = %39
  %46 = tail call i32 (ptr, ...) @printf(ptr noundef nonnull dereferenceable(1) @.str.4, ptr noundef nonnull %44)
  br label %49

47:                                               ; preds = %39
  %48 = tail call i32 (ptr, ...) @printf(ptr noundef nonnull dereferenceable(1) @.str.7, ptr noundef nonnull @.str.6, i32 noundef %41, ptr noundef nonnull %44)
  br label %49

49:                                               ; preds = %47, %45
  %indvars.iv.next.i26 = add nuw nsw i64 %indvars.iv.i24, 1
  %exitcond.not.i27 = icmp eq i64 %indvars.iv.next.i26, %wide.trip.count.i23
  br i1 %exitcond.not.i27, label %Gia_ManMulFindPrintSet.exit28, label %39, !llvm.loop !169

Gia_ManMulFindPrintSet.exit28:                    ; preds = %49, %Gia_ManMulFindPrintSet.exit
  %putchar18.i21 = tail call i32 @putchar(i32 125)
  %50 = tail call i32 (ptr, ...) @printf(ptr noundef nonnull dereferenceable(1) @.str.15)
  %.val.i29 = load i32, ptr %9, align 4, !tbaa !33
  %51 = add i32 %.val.i29, -1
  %putchar.i30 = tail call i32 @putchar(i32 123)
  %52 = icmp sgt i32 %51, 0
  br i1 %52, label %.lr.ph.i32, label %Gia_ManMulFindPrintSet.exit38

.lr.ph.i32:                                       ; preds = %Gia_ManMulFindPrintSet.exit28
  %53 = add i32 %.val.i29, -2
  %54 = zext nneg i32 %53 to i64
  %wide.trip.count.i33 = zext nneg i32 %51 to i64
  br label %55

55:                                               ; preds = %69, %.lr.ph.i32
  %indvars.iv.i34 = phi i64 [ 0, %.lr.ph.i32 ], [ %indvars.iv.next.i36, %69 ]
  %.val20.i35 = load ptr, ptr %10, align 8, !tbaa !35
  %56 = getelementptr inbounds nuw i32, ptr %.val20.i35, i64 %indvars.iv.i34
  %57 = load i32, ptr %56, align 4, !tbaa !29
  %58 = icmp eq i32 %57, -1
  br i1 %58, label %59, label %63

59:                                               ; preds = %55
  %60 = icmp samesign ult i64 %indvars.iv.i34, %54
  %61 = select i1 %60, ptr @.str.5, ptr @.str.6
  %62 = tail call i32 (ptr, ...) @printf(ptr noundef nonnull dereferenceable(1) @.str.4, ptr noundef nonnull %61)
  br label %69

63:                                               ; preds = %55
  %64 = and i32 %57, 1
  %.not.i = icmp eq i32 %64, 0
  %65 = select i1 %.not.i, ptr @.str.6, ptr @.str.8
  %spec.select.i = ashr i32 %57, 1
  %66 = icmp samesign ult i64 %indvars.iv.i34, %54
  %67 = select i1 %66, ptr @.str.5, ptr @.str.6
  %68 = tail call i32 (ptr, ...) @printf(ptr noundef nonnull dereferenceable(1) @.str.7, ptr noundef nonnull %65, i32 noundef %spec.select.i, ptr noundef nonnull %67)
  br label %69

69:                                               ; preds = %63, %59
  %indvars.iv.next.i36 = add nuw nsw i64 %indvars.iv.i34, 1
  %exitcond.not.i37 = icmp eq i64 %indvars.iv.next.i36, %wide.trip.count.i33
  br i1 %exitcond.not.i37, label %Gia_ManMulFindPrintSet.exit38, label %55, !llvm.loop !169

Gia_ManMulFindPrintSet.exit38:                    ; preds = %69, %Gia_ManMulFindPrintSet.exit28
  %putchar18.i31 = tail call i32 @putchar(i32 125)
  %putchar = tail call i32 @putchar(i32 10)
  ret void
}